c__builtin__
set
p0
((lp1
S'/Hotel_Review-g60745-d620703-Reviews-InterContinental_Boston-Boston_Massachusetts.html'
p2
aS'/Hotel_Review-g60745-d217550-Reviews-DoubleTree_by_Hilton_Hotel_Boston_Downtown-Boston_Massachusetts.html'
p3
aS'/Hotel_Review-g60745-d89602-Reviews-Sheraton_Boston_Hotel-Boston_Massachusetts.html'
p4
aS'/Hotel_Review-g60745-d111418-Reviews-Boston_Park_Plaza-Boston_Massachusetts.html'
p5
aS'/Hotel_Review-g60745-d313573-Reviews-Courtyard_by_Marriott_Boston_Copley_Square-Boston_Massachusetts.html'
p6
aS'/Hotel_Review-g60745-d1486034-Reviews-W_Boston-Boston_Massachusetts.html'
p7
aS'/Hotel_Review-g60745-d3225572-Reviews-EnVision_Hotel_Boston-Boston_Massachusetts.html'
p8
aS'/Hotel_Review-g60745-d111417-Reviews-Boston_Marriott_Long_Wharf-Boston_Massachusetts.html'
p9
aS'/Hotel_Review-g60745-d549445-Reviews-Hotel_140-Boston_Massachusetts.html'
p10
aS'/Hotel_Review-g60745-d1136705-Reviews-Mandarin_Oriental_Boston-Boston_Massachusetts.html'
p11
aS'/Hotel_Review-g60745-d94344-Reviews-Marriott_s_Custom_House-Boston_Massachusetts.html'
p12
aS'/Hotel_Review-g60745-d258705-Reviews-Hotel_Commonwealth-Boston_Massachusetts.html'
p13
aS'/Hotel_Review-g60745-d268207-Reviews-Residence_Inn_by_Marriott_Boston_Harbor_on_Tudor_Wharf-Boston_Massachusetts.html'
p14
aS'/Hotel_Review-g60745-d94350-Reviews-The_Midtown_Hotel-Boston_Massachusetts.html'
p15
aS'/Hotel_Review-g60745-d89575-Reviews-Boston_Harbor_Hotel-Boston_Massachusetts.html'
p16
aS'/Hotel_Review-g60745-d89599-Reviews-Omni_Parker_House-Boston_Massachusetts.html'
p17
aS'/Hotel_Review-g60745-d94326-Reviews-Hilton_Boston_Downtown_Faneuil_Hall-Boston_Massachusetts.html'
p18
aS'/Hotel_Review-g60745-d320038-Reviews-Hampton_Inn_Suites_Boston_Crosstown_Center-Boston_Massachusetts.html'
p19
aS'/Hotel_Review-g60745-d94337-Reviews-XV_Beacon-Boston_Massachusetts.html'
p20
aS'/Hotel_Review-g60745-d77629-Reviews-BEST_WESTERN_University_Hotel_Boston_Brighton-Boston_Massachusetts.html'
p21
aS'/Hotel_Review-g60745-d225873-Reviews-Charlesmark_Hotel-Boston_Massachusetts.html'
p22
aS'/Hotel_Review-g60745-d234752-Reviews-Nine_Zero_Hotel_a_Kimpton_Hotel-Boston_Massachusetts.html'
p23
aS'/Hotel_Review-g60745-d120988-Reviews-Hilton_Boston_Logan_Airport-Boston_Massachusetts.html'
p24
aS'/Hotel_Review-g60745-d1138709-Reviews-Holiday_Inn_Express_Hotel_Suites_Boston_Garden-Boston_Massachusetts.html'
p25
aS'/Hotel_Review-g60745-d111422-Reviews-DoubleTree_Suites_by_Hilton_Boston_Cambridge-Boston_Massachusetts.html'
p26
aS'/Hotel_Review-g60745-d89568-Reviews-Chandler_Inn-Boston_Massachusetts.html'
p27
aS'/Hotel_Review-g60745-d1513541-Reviews-Ames_Boston_Hotel-Boston_Massachusetts.html'
p28
aS'/Hotel_Review-g60745-d94399-Reviews-Club_Quarters_in_Boston-Boston_Massachusetts.html'
p29
aS'/Hotel_Review-g60745-d647006-Reviews-The_Liberty_Hotel-Boston_Massachusetts.html'
p30
aS'/Hotel_Review-g60745-d89600-Reviews-Revere_Hotel_Boston_Common-Boston_Massachusetts.html'
p31
aS'/Hotel_Review-g60745-d114134-Reviews-Lenox_Hotel-Boston_Massachusetts.html'
p32
aS'/Hotel_Review-g60745-d89617-Reviews-The_Westin_Copley_Place-Boston_Massachusetts.html'
p33
aS'/Hotel_Review-g60745-d94368-Reviews-DoubleTree_Club_by_Hilton_Hotel_Boston_Bayside-Boston_Massachusetts.html'
p34
aS'/Hotel_Review-g60745-d220216-Reviews-Beacon_Hill_Hotel_and_Bistro-Boston_Massachusetts.html'
p35
aS'/Hotel_Review-g60745-d1159285-Reviews-The_Inn_At_St_Botolph-Boston_Massachusetts.html'
p36
aS'/Hotel_Review-g60745-d222958-Reviews-Comfort_Inn_Boston-Boston_Massachusetts.html'
p37
aS'/Hotel_Review-g60745-d268205-Reviews-Embassy_Suites_Boston_Logan_Airport-Boston_Massachusetts.html'
p38
aS'/Hotel_Review-g60745-d121009-Reviews-Holiday_Inn_Express_Boston-Boston_Massachusetts.html'
p39
aS'/Hotel_Review-g60745-d499916-Reviews-The_Boxer_Boston-Boston_Massachusetts.html'
p40
aS'/Hotel_Review-g60745-d126058-Reviews-Constitution_Inn-Boston_Massachusetts.html'
p41
aS'/Hotel_Review-g60745-d1201116-Reviews-Battery_Wharf_Hotel_Boston_Waterfront-Boston_Massachusetts.html'
p42
aS'/Hotel_Review-g60745-d217148-Reviews-Ramada_Boston-Boston_Massachusetts.html'
p43
aS'/Hotel_Review-g60745-d111434-Reviews-Newbury_Guest_House-Boston_Massachusetts.html'
p44
aS'/Hotel_Review-g60745-d94372-Reviews-Boston_Hotel_Buckminster-Boston_Massachusetts.html'
p45
aS'/Hotel_Review-g60745-d4325990-Reviews-Residence_Inn_Boston_Back_Bay_Fenway-Boston_Massachusetts.html'
p46
aS'/Hotel_Review-g60745-d89620-Reviews-Hyatt_Boston_Harbor-Boston_Massachusetts.html'
p47
aS'/Hotel_Review-g60745-d222957-Reviews-BEST_WESTERN_PLUS_Roundhouse_Suites-Boston_Massachusetts.html'
p48
aS'/Hotel_Review-g60745-d111421-Reviews-Copley_Square_Hotel-Boston_Massachusetts.html'
p49
aS'/Hotel_Review-g60745-d94330-Reviews-Seaport_Boston_Hotel-Boston_Massachusetts.html'
p50
aS'/Hotel_Review-g60745-d595373-Reviews-The_Westin_Boston_Waterfront-Boston_Massachusetts.html'
p51
aS'/Hotel_Review-g60745-d89615-Reviews-Taj_Boston-Boston_Massachusetts.html'
p52
aS'/Hotel_Review-g60745-d4232689-Reviews-Residence_Inn_Boston_Downtown_Seaport-Boston_Massachusetts.html'
p53
aS'/Hotel_Review-g60745-d120977-Reviews-Copley_House-Boston_Massachusetts.html'
p54
aS'/Hotel_Review-g60745-d6485213-Reviews-The_Verb_Hotel-Boston_Massachusetts.html'
p55
aS'/Hotel_Review-g60745-d89592-Reviews-Milner_Hotel-Boston_Massachusetts.html'
p56
aS'/Hotel_Review-g60745-d222955-Reviews-The_Ritz_Carlton_Boston_Common-Boston_Massachusetts.html'
p57
aS'/Hotel_Review-g60745-d678412-Reviews-Renaissance_Boston_Waterfront_Hotel-Boston_Massachusetts.html'
p58
aS'/Hotel_Review-g60745-d287606-Reviews-Onyx_Hotel_a_Kimpton_Hotel-Boston_Massachusetts.html'
p59
aS'/Hotel_Review-g60745-d114150-Reviews-Millennium_Bostonian_Hotel-Boston_Massachusetts.html'
p60
aS'/Hotel_Review-g60745-d217546-Reviews-Wyndham_Boston_Beacon_Hill-Boston_Massachusetts.html'
p61
aS'/Hotel_Review-g60745-d89619-Reviews-Courtyard_Boston_Downtown-Boston_Massachusetts.html'
p62
aS'/Hotel_Review-g60745-d94363-Reviews-Courtyard_by_Marriott_Boston_Logan_Airport-Boston_Massachusetts.html'
p63
aS'/Hotel_Review-g60745-d111441-Reviews-Hyatt_Regency_Boston-Boston_Massachusetts.html'
p64
aS'/Hotel_Review-g60745-d111444-Reviews-The_Fairmont_Copley_Plaza_Boston-Boston_Massachusetts.html'
p65
aS'/Hotel_Review-g60745-d268206-Reviews-The_Boston_Common_Hotel_and_Conference_Center-Boston_Massachusetts.html'
p66
aS'/Hotel_Review-g60745-d217000-Reviews-Days_Hotel_Boston-Boston_Massachusetts.html'
p67
aS'/Hotel_Review-g60745-d114149-Reviews-The_Langham_Boston-Boston_Massachusetts.html'
p68
aS'/Hotel_Review-g60745-d216999-Reviews-Americas_Best_Value_Inn-Boston_Massachusetts.html'
p69
aS'/Hotel_Review-g60745-d94367-Reviews-Harborside_Inn-Boston_Massachusetts.html'
p70
aS'/Hotel_Review-g60745-d111428-Reviews-Hilton_Boston_Back_Bay-Boston_Massachusetts.html'
p71
aS'/Hotel_Review-g60745-d111423-Reviews-Eliot_Hotel-Boston_Massachusetts.html'
p72
aS'/Hotel_Review-g60745-d77638-Reviews-The_Inn_at_Longwood_Medical-Boston_Massachusetts.html'
p73
aS'/Hotel_Review-g60745-d555224-Reviews-Courtyard_Boston_South_Boston-Boston_Massachusetts.html'
p74
aS'/Hotel_Review-g60745-d94371-Reviews-Colonnade_Hotel-Boston_Massachusetts.html'
p75
aS'/Hotel_Review-g60745-d89585-Reviews-Four_Seasons_Hotel_Boston-Boston_Massachusetts.html'
p76
aS'/Hotel_Review-g60745-d111416-Reviews-Boston_Marriott_Copley_Place-Boston_Massachusetts.html'
p77
aS'/Hotel_Review-g60745-d321151-Reviews-Loews_Boston_Hotel-Boston_Massachusetts.html'
p78
atp79
Rp80
.