(lp0
(lp1
S'InterContinental Boston Hotel'
p2
aI0
aF4.397996837111228
aI1138
aI526
aI130
aI56
aI47
aI383
aI665
aI127
aI475
aF4.5
aF4.5
aF4.5
aF4.5
aF4.0
aF4.5
aa(lp3
S'DoubleTree by Hilton Hotel Boston - Downtown'
p4
aI0
aF4.172340425531915
aI204
aI178
aI61
aI19
aI8
aI114
aI110
aI19
aI145
aF4.5
aF4.5
aF4.5
aF4.5
aF4.0
aF4.5
aa(lp5
S'Charlesmark Hotel, Boston'
p6
aI0
aF4.180371352785146
aI329
aI302
aI71
aI34
aI18
aI44
aI304
aI95
aI140
aF5.0
aF4.0
aF4.0
aF4.0
aF4.0
aF4.5
aa(lp7
S'Boston Park Plaza Hotel'
p8
aI0
aF3.259285378467325
aI741
aI1317
aI1016
aI664
aI516
aI633
aI1248
aI293
aI1190
aF4.5
aF3.5
aF3.0
aF3.5
aF3.5
aF3.5
aa(lp9
S'Courtyard by Marriott Boston Copley Square Hotel'
p10
aI1
aF4.554865424430642
aI628
aI276
aI43
aI8
aI11
aI230
aI222
aI70
aI300
aF5.0
aF4.5
aF4.5
aF4.5
aF4.5
aF4.5
aa(lp11
S'W Boston Hotel'
p12
aI0
aF4.146820809248555
aI418
aI262
aI107
aI50
aI28
aI128
aI312
aI67
aI218
aF4.5
aF4.5
aF4.0
aF4.5
aF3.5
aF4.5
aa(lp13
S'enVision Hotel Boston'
p14
aI1
aF4.5777777777777775
aI246
aI85
aI21
aI7
aI1
aI104
aI102
aI29
aI64
aF4.5
aF4.0
aF4.5
aF4.5
aF4.5
aF5.0
aa(lp15
S'Ames Boston Hotel'
p16
aI0
aF4.309195402298851
aI473
aI258
aI89
aI35
aI15
aI103
aI431
aI65
aI153
aF5.0
aF4.5
aF4.5
aF4.5
aF4.0
aF4.5
aa(lp17
S'Hotel 140, Boston'
p18
aI0
aF3.910401647785788
aI320
aI390
aI160
aI56
aI45
aI119
aI417
aI108
aI148
aF4.5
aF4.0
aF3.5
aF4.0
aF4.0
aF4.5
aa(lp19
S'Mandarin Oriental, Boston Hotel'
p20
aI1
aF4.642156862745098
aI314
aI61
aI20
aI7
aI6
aI78
aI115
aI30
aI132
aF5.0
aF5.0
aF4.5
aF4.5
aF4.0
aF5.0
aa(lp21
S"Marriott's Custom House Resort, Boston"
p22
aI1
aF4.551601423487544
aI381
aI146
aI11
aI12
aI12
aI218
aI179
aI15
aI45
aF5.0
aF4.5
aF4.5
aF4.5
aF4.0
aF4.5
aa(lp23
S'Hotel Commonwealth, Boston'
p24
aI1
aF4.737699355276552
aI2372
aI442
aI81
aI39
aI13
aI916
aI853
aI147
aI585
aF5.0
aF5.0
aF5.0
aF5.0
aF4.5
aF5.0
aa(lp25
S'Residence Inn by Marriott Boston Harbor on Tudor Wharf Hotel'
p26
aI0
aF4.375722543352601
aI277
aI182
aI42
aI14
aI4
aI196
aI140
aI25
aI71
aF4.5
aF4.5
aF4.5
aF4.5
aF4.0
aF4.5
aa(lp27
S'The Midtown Hotel, Boston'
p28
aI0
aF3.623021582733813
aI255
aI608
aI339
aI124
aI64
aI395
aI327
aI106
aI244
aF4.5
aF4.0
aF3.5
aF4.0
aF4.0
aF4.0
aa(lp29
S'Boston Harbor Hotel'
p30
aI1
aF4.707434052757794
aI992
aI189
aI44
aI15
aI11
aI285
aI462
aI55
aI255
aF5.0
aF4.5
aF4.5
aF5.0
aF4.5
aF5.0
aa(lp31
S'Omni Parker House Hotel, Boston'
p32
aI0
aF4.129733363208604
aI2032
aI1490
aI563
aI244
aI134
aI919
aI1520
aI252
aI1014
aF5.0
aF4.0
aF4.0
aF4.5
aF4.0
aF4.5
aa(lp33
S'The Langham, Boston Hotel'
p34
aI0
aF4.374468085106383
aI809
aI419
aI112
aI41
aI29
aI249
aI559
aI51
aI324
aF4.5
aF4.5
aF4.5
aF4.5
aF4.0
aF4.5
aa(lp35
S'Hampton Inn & Suites Boston Crosstown Center Hotel'
p36
aI0
aF3.9559859154929575
aI203
aI215
aI94
aI34
aI22
aI173
aI95
aI56
aI163
aF4.0
aF3.5
aF4.5
aF4.0
aF4.0
aF4.5
aa(lp37
S'XV Beacon Hotel, Boston'
p38
aI1
aF4.62280701754386
aI598
aI139
aI30
aI22
aI9
aI112
aI406
aI40
aI115
aF5.0
aF4.5
aF4.5
aF4.5
aF4.0
aF5.0
aa(lp39
S'BEST WESTERN University Hotel Boston-Brighton'
p40
aI0
aF3.6952908587257616
aI97
aI132
aI78
aI33
aI21
aI166
aI59
aI27
aI49
aF4.0
aF4.0
aF3.5
aF4.0
aF4.0
aF4.0
aa(lp41
S'Constitution Inn Hotel, Boston'
p42
aI0
aF3.2068126520681264
aI56
aI131
aI115
aI60
aI49
aI103
aI112
aI33
aI42
aF3.5
aF3.5
aF3.0
aF3.5
aF3.5
aF3.5
aa(lp43
S'Nine Zero Hotel - a Kimpton Hotel, Boston'
p44
aI1
aF4.523236741388737
aI1179
aI496
aI105
aI30
aI19
aI328
aI830
aI119
aI324
aF5.0
aF4.5
aF4.5
aF4.5
aF4.0
aF4.5
aa(lp45
S'Hilton Boston Logan Airport Hotel'
p46
aI0
aF4.040609137055838
aI686
aI857
aI295
aI85
aI47
aI422
aI514
aI192
aI604
aF4.5
aF4.5
aF4.0
aF4.0
aF3.5
aF4.5
aa(lp47
S'Holiday Inn Express Hotel & Suites Boston Garden'
p48
aI0
aF3.69281045751634
aI81
aI115
aI64
aI27
aI19
aI72
aI92
aI16
aI45
aF4.5
aF3.5
aF3.5
aF4.0
aF3.5
aF4.0
aa(lp49
S'DoubleTree Suites by Hilton Boston-Cambridge Hotel'
p50
aI0
aF4.029135338345864
aI390
aI443
aI138
aI58
aI35
aI364
aI191
aI68
aI293
aF4.0
aF4.0
aF4.0
aF4.0
aF4.0
aF4.5
aa(lp51
S'Chandler Inn Hotel, Boston'
p52
aI0
aF3.986013986013986
aI269
aI406
aI110
aI48
aI25
aI77
aI367
aI126
aI120
aF4.5
aF4.0
aF4.0
aF4.0
aF4.0
aF4.5
aa(lp53
S'Hyatt Regency Boston Hotel'
p54
aI0
aF3.904343329886246
aI627
aI738
aI381
aI133
aI55
aI393
aI568
aI115
aI474
aF4.5
aF4.0
aF4.0
aF4.0
aF3.5
aF4.5
aa(lp55
S'The Liberty Hotel, Boston'
p56
aI0
aF4.222818791946309
aI396
aI211
aI78
aI28
aI32
aI126
aI265
aI28
aI173
aF4.5
aF4.0
aF4.0
aF4.5
aF3.5
aF4.5
aa(lp57
S'Club Quarters in Boston Hotel'
p58
aI0
aF4.07802093244529
aI415
aI420
aI133
aI49
aI34
aI111
aI354
aI112
aI239
aF4.5
aF4.0
aF4.0
aF4.0
aF4.0
aF4.5
aa(lp59
S'Hilton Boston Back Bay Hotel'
p60
aI0
aF4.016988869361453
aI575
aI731
aI283
aI91
aI27
aI413
aI458
aI116
aI471
aF4.5
aF4.0
aF4.0
aF4.0
aF4.0
aF4.5
aa(lp61
S'Boston Marriott Long Wharf Hotel'
p62
aI0
aF4.231007751937985
aI611
aI467
aI137
aI49
aI26
aI434
aI344
aI38
aI253
aF5.0
aF4.0
aF4.0
aF4.5
aF3.5
aF4.5
aa(lp63
S'The Westin Copley Place Hotel, Boston'
p64
aI0
aF4.219237435008665
aI1071
aI833
aI277
aI93
aI34
aI547
aI495
aI103
aI774
aF5.0
aF4.5
aF4.5
aF4.5
aF4.0
aF4.5
aa(lp65
S'DoubleTree Club by Hilton Hotel Boston Bayside'
p66
aI0
aF3.7547568710359407
aI259
aI346
aI228
aI76
aI37
aI234
aI247
aI76
aI224
aF4.0
aF3.5
aF4.0
aF4.0
aF3.5
aF4.0
aa(lp67
S'Beacon Hill Hotel and Bistro, Boston'
p68
aI0
aF4.125874125874126
aI66
aI46
aI18
aI9
aI4
aI17
aI72
aI15
aI13
aF5.0
aF4.0
aF4.0
aF4.0
aF4.0
aF4.5
aa(lp69
S'The Inn At St Botolph Boutique Hotel, Boston'
p70
aI1
aF4.594405594405594
aI295
aI105
aI20
aI7
aI2
aI78
aI186
aI51
aI87
aF5.0
aF4.5
aF4.5
aF4.5
aF4.5
aF4.5
aa(lp71
S'Embassy Suites Boston Logan Airport Hotel'
p72
aI0
aF4.00983358547655
aI482
aI517
aI217
aI66
aI40
aI429
aI307
aI77
aI302
aF4.5
aF4.0
aF4.0
aF4.0
aF4.0
aF4.5
aa(lp73
S'Lenox Hotel, Boston'
p74
aI1
aF4.6332813717848795
aI1884
aI509
aI107
aI46
aI20
aI632
aI986
aI143
aI383
aF5.0
aF4.5
aF4.5
aF5.0
aF4.5
aF5.0
aa(lp75
S'Ramada Boston Hotel'
p76
aI0
aF3.075
aI130
aI235
aI256
aI172
aI127
aI296
aI195
aI83
aI163
aF3.5
aF3.5
aF3.0
aF3.5
aF3.5
aF3.5
aa(lp77
S'Boston Hotel Buckminster'
p78
aI0
aF3.608695652173913
aI169
aI373
aI149
aI67
aI70
aI178
aI276
aI63
aI106
aF4.5
aF4.0
aF3.5
aF4.0
aF4.0
aF4.0
aa(lp79
S'Residence Inn Boston Back Bay / Fenway Hotel'
p80
aI1
aF4.579349904397706
aI353
aI135
aI23
aI9
aI3
aI199
aI86
aI16
aI86
aF4.5
aF4.5
aF4.5
aF4.5
aF4.5
aF5.0
aa(lp81
S'Hyatt Boston Harbor Hotel'
p82
aI0
aF4.066609735269001
aI480
aI424
aI166
aI67
aI34
aI240
aI335
aI105
aI329
aF4.5
aF4.0
aF4.0
aF4.5
aF4.0
aF4.5
aa(lp83
S'BEST WESTERN PLUS Roundhouse Suites Hotel, Boston'
p84
aI0
aF3.7346368715083798
aI179
aI305
aI129
aI69
aI34
aI257
aI179
aI17
aI104
aF4.0
aF3.5
aF4.0
aF4.0
aF4.0
aF4.0
aa(lp85
S'Copley Square Hotel, Boston'
p86
aI0
aF4.321223709369025
aI540
aI360
aI103
aI28
aI15
aI188
aI418
aI88
aI223
aF5.0
aF4.5
aF4.0
aF4.5
aF4.0
aF4.5
aa(lp87
S'Seaport Boston Hotel'
p88
aI1
aF4.637397099176793
aI1883
aI506
aI98
aI33
aI31
aI461
aI552
aI108
aI1113
aF4.5
aF4.5
aF4.5
aF4.5
aF4.5
aF5.0
aa(lp89
S'The Westin Boston Waterfront Hotel'
p90
aI0
aF4.006785934608266
aI586
aI637
aI267
aI85
aI46
aI234
aI383
aI107
aI728
aF4.5
aF3.5
aF4.0
aF4.0
aF3.5
aF4.5
aa(lp91
S'Taj Boston Hotel'
p92
aI0
aF4.085440278988666
aI509
aI374
aI149
aI83
aI32
aI241
aI433
aI77
aI244
aF5.0
aF4.5
aF4.0
aF4.0
aF4.0
aF4.5
aa(lp93
S'Residence Inn Boston Downtown Seaport Hotel'
p94
aI1
aF4.619658119658119
aI168
aI52
aI6
aI7
aI1
aI65
aI69
aI4
aI53
aF4.5
aF4.5
aF5.0
aF4.5
aF4.0
aF5.0
aa(lp95
S'Copley House Hotel, Boston'
p96
aI0
aF3.636842105263158
aI109
aI138
aI60
aI32
aI41
aI80
aI113
aI37
aI67
aF4.5
aF3.5
aF3.5
aF3.5
aF4.0
aF3.5
aa(lp97
S'The Inn at Longwood Medical Hotel, Boston'
p98
aI0
aF4.069868995633188
aI347
aI162
aI96
aI43
aI39
aI238
aI100
aI61
aI187
aF4.5
aF4.0
aF4.0
aF4.5
aF4.0
aF4.0
aa(lp99
S'The Verb Hotel, Boston'
p100
aI1
aF4.654471544715447
aI178
aI56
aI9
aI1
aI2
aI41
aI79
aI18
aI31
aF4.5
aF4.5
aF4.5
aF4.5
aF4.5
aF5.0
aa(lp101
S'Milner Hotel, Boston'
p102
aI0
aF3.0135869565217392
aI29
aI119
aI112
aI44
aI64
aI43
aI107
aI77
aI56
aF4.5
aF3.5
aF2.5
aF3.5
aF3.5
aF3.5
aa(lp103
S'Holiday Inn Express Boston Hotel'
p104
aI0
aF3.836431226765799
aI134
aI255
aI99
aI27
aI23
aI132
aI194
aI38
aI78
aF4.0
aF3.5
aF4.0
aF4.0
aF4.0
aF4.0
aa(lp105
S'Comfort Inn - Boston Hotel'
p106
aI0
aF3.3484320557491287
aI47
aI94
aI85
aI34
aI27
aI69
aI91
aI17
aI41
aF3.5
aF3.0
aF3.5
aF3.5
aF3.5
aF4.0
aa(lp107
S'Renaissance Boston Waterfront Hotel'
p108
aI0
aF4.13745704467354
aI337
aI383
aI104
aI34
aI15
aI140
aI215
aI62
aI371
aF4.5
aF4.0
aF4.5
aF4.5
aF4.0
aF4.5
aa(lp109
S'Onyx Hotel - a Kimpton Hotel, Boston'
p110
aI0
aF4.21057985757884
aI478
aI326
aI109
aI48
aI22
aI174
aI373
aI55
aI148
aF4.5
aF4.5
aF4.0
aF4.5
aF4.0
aF4.5
aa(lp111
S'Newbury Guest House Hotel, Boston'
p112
aI0
aF4.1077981651376145
aI173
aI185
aI44
aI20
aI14
aI64
aI200
aI26
aI45
aF5.0
aF4.5
aF4.0
aF4.0
aF4.0
aF4.5
aa(lp113
S'Colonnade Hotel, Boston'
p114
aI1
aF4.409597673291323
aI1278
aI513
aI160
aI63
aI49
aI472
aI616
aI103
aI526
aF5.0
aF4.5
aF4.5
aF4.5
aF4.0
aF4.5
aa(lp115
S'Courtyard Boston Downtown Hotel'
p116
aI0
aF3.087871287128713
aI76
aI233
aI266
aI152
aI81
aI114
aI234
aI72
aI224
aF4.0
aF3.0
aF3.0
aF3.5
aF3.0
aF3.5
aa(lp117
S'Millennium Bostonian Hotel, Boston'
p118
aI0
aF4.110893032384691
aI438
aI377
aI116
aI55
aI33
aI188
aI415
aI60
aI156
aF5.0
aF4.0
aF4.0
aF4.0
aF4.0
aF4.5
aa(lp119
S'Courtyard by Marriott Boston Logan Airport Hotel'
p120
aI0
aF3.697674418604651
aI98
aI176
aI102
aI36
aI18
aI92
aI108
aI40
aI138
aF4.0
aF4.0
aF4.0
aF4.0
aF3.5
aF4.0
aa(lp121
S'The Ritz-Carlton Boston Common Hotel'
p122
aI0
aF4.255360623781677
aI299
aI111
aI51
aI39
aI13
aI124
aI120
aI19
aI143
aF4.5
aF4.5
aF4.5
aF4.5
aF4.0
aF4.5
aa(lp123
S'The Fairmont Copley Plaza, Boston Hotel'
p124
aI0
aF4.337057728119181
aI923
aI434
aI157
aI68
aI29
aI316
aI557
aI71
aI444
aF5.0
aF4.5
aF4.0
aF4.5
aF4.0
aF4.5
aa(lp125
S'The Boston Common Hotel and Conference Center'
p126
aI0
aF3.2821670428893905
aI46
aI158
aI147
aI59
aI33
aI66
aI160
aI37
aI80
aF4.5
aF3.5
aF3.0
aF3.5
aF3.5
aF3.5
aa(lp127
S'Loews Boston Hotel'
p128
aI1
aF4.4928664072632944
aI478
aI216
aI59
aI15
aI3
aI175
aI275
aI22
aI152
aF4.5
aF4.5
aF4.5
aF4.5
aF4.0
aF4.5
aa(lp129
S'Days Hotel Boston'
p130
aI0
aF2.763157894736842
aI19
aI32
aI57
aI49
aI33
aI58
aI31
aI12
aI41
aF3.5
aF3.0
aF3.0
aF3.0
aF3.0
aF3.0
aa(lp131
S'Hilton Boston Downtown / Faneuil Hall Hotel'
p132
aI0
aF3.961187214611872
aI302
aI340
aI162
aI42
aI30
aI206
aI253
aI30
aI230
aF4.5
aF4.0
aF4.0
aF4.0
aF3.5
aF4.5
aa(lp133
S'Americas Best Value Inn Hotel, Boston'
p134
aI0
aF2.7222222222222223
aI2
aI2
aI8
aI1
aI5
aI4
aI3
aI2
aI3
aF3.0
aF2.5
aF2.5
aF2.5
aF3.0
aF3.0
aa(lp135
S'Revere Hotel Boston Common'
p136
aI0
aF4.402051282051282
aI1094
aI619
aI181
aI39
aI17
aI445
aI624
aI78
aI300
aF4.5
aF4.5
aF4.5
aF4.5
aF4.0
aF4.5
aa(lp137
S'Harborside Inn Hotel, Boston'
p138
aI0
aF4.070599613152805
aI388
aI460
aI98
aI47
aI41
aI87
aI545
aI74
aI113
aF5.0
aF4.0
aF4.0
aF4.0
aF4.0
aF4.5
aa(lp139
S'Sheraton Boston Hotel'
p140
aI0
aF4.052532833020638
aI197
aI224
aI74
aI19
aI19
aI107
aI127
aI17
aI203
aF4.5
aF4.5
aF4.0
aF4.0
aF4.0
aF4.5
aa(lp141
S'Eliot Hotel, Boston'
p142
aI0
aF4.323056300268097
aI433
aI196
aI65
aI29
aI23
aI223
aI206
aI29
aI117
aF4.5
aF4.5
aF4.5
aF4.5
aF4.0
aF4.5
aa(lp143
S'Battery Wharf Hotel, Boston Waterfront'
p144
aI1
aF4.475694444444445
aI560
aI197
aI74
aI24
aI9
aI175
aI407
aI51
aI128
aF4.5
aF4.5
aF4.5
aF4.5
aF4.0
aF4.5
aa(lp145
S'Courtyard Boston-South Boston Hotel'
p146
aI0
aF3.863372093023256
aI91
aI162
aI56
aI23
aI12
aI111
aI90
aI22
aI73
aF4.0
aF3.5
aF4.5
aF4.0
aF4.0
aF4.5
aa(lp147
S'Wyndham Boston Beacon Hill Hotel'
p148
aI0
aF3.9288461538461537
aI348
aI404
aI186
aI70
aI32
aI363
aI167
aI101
aI281
aF4.5
aF4.0
aF4.0
aF4.0
aF3.5
aF4.5
aa(lp149
S'Four Seasons Hotel Boston'
p150
aI1
aF4.659244917715392
aI811
aI140
aI47
aI22
aI13
aI292
aI256
aI47
aI318
aF5.0
aF5.0
aF4.5
aF5.0
aF4.0
aF5.0
aa(lp151
S'Boston Marriott Copley Place Hotel'
p152
aI0
aF4.002450980392157
aI638
aI937
aI332
aI98
aI35
aI440
aI466
aI95
aI710
aF4.5
aF4.0
aF4.0
aF4.0
aF3.5
aF4.5
aa(lp153
S'The Boxer Boston Hotel'
p154
aI0
aF4.2411924119241196
aI174
aI134
aI45
aI8
aI8
aI58
aI145
aI18
aI56
aF4.5
aF4.5
aF4.0
aF4.5
aF4.0
aF4.5
aa.